; Function Attrs: mustprogress nofree norecurse nosync nounwind willreturn memory(argmem: read) uwtable
define noundef zeroext i1 @_ZN3net17QuicPacketCreator26IncludeNonceInPublicHeaderEv(ptr noundef nonnull readonly align 8 captures(none) dereferenceable(312) %0) local_unnamed_addr #7 align 2 {
  %2 = getelementptr inbounds nuw i8, ptr %0, i64 59
  %3 = load i8, ptr %2, align 1, !tbaa !75, !range !94, !noundef !95
  %4 = trunc nuw i8 %3 to i1
  %5 = getelementptr inbounds nuw i8, ptr %0, i64 217
  %6 = load i8, ptr %5, align 1
  %7 = icmp eq i8 %6, 1
  %8 = select i1 %4, i1 %7, i1 false
  ret i1 %8
}